(icult
Cult
p1
(dp2
S'doctrines'
p3
(lp4
(icult
Doctrine
p5
(dp6
S'name'
p7
S'New Age'
p8
sS'popularity_mod'
p9
I5
sbasS'recruit_base_morale_min'
p10
I40
sS'founding_date'
p11
cdatetime
date
p12
(S'\x07\xdf\x0c\x01'
tRp13
sS'current_date'
p14
g12
(S'\x07\xe0\x03\x06'
tRp15
sg7
S'RRDS'
p16
sS'dogma'
p17
I10
sS'funds'
p18
I1000
sS'popularity'
p19
I0
sS'authoritarianism'
p20
I0
sS'departments'
p21
(dp22
S'Write Scripture'
p23
(ilaborpool
LaborPool
p24
(dp25
S'max_people'
p26
S'unlimited'
p27
sg7
S'Write Scripture'
p28
sS'people'
p29
(lp30
sS'monthly_function'
p31
ccult
writeScripture
p32
sS'permanency'
p33
I01
sS'minimum_rank'
p34
S'leader'
p35
sbsS'Meditating'
p36
(ilaborpool
LaborPool
p37
(dp38
g26
g27
sg7
S'Transcendental Medication'
p39
sg29
(lp40
sg31
I00
sg33
I01
sg34
S'recruit'
p41
sbsS'Street Preaching'
p42
(ilaborpool
LaborPool
p43
(dp44
g26
g27
sg7
S'Recruiting: Street Preaching'
p45
sg29
(lp46
sg31
ccult
streetPreaching
p47
sg33
I01
sg34
S'outer'
p48
sbsS'Indoctrinating Recruits'
p49
(ilaborpool
LaborPool
p50
(dp51
g26
g27
sg7
S'Indoctrinating Recruits'
p52
sg29
(lp53
(iperson
Person
p54
(dp55
S'joined_date'
p56
g12
(S'\x07\xdf\x0c\x01'
tRp57
sg7
S'Bob'
p58
sS'family'
p59
S''
sS'dirt'
p60
(lp61
sS'successes'
p62
(lp63
sS'gender'
p64
S'm'
sS'age'
p65
I25
sS'wealth'
p66
I1000
sS'rank'
p67
g35
sS'morale'
p68
I1
sS'skills'
p69
(dp70
S'recruit_months'
p71
I2
sg41
I28
sS'doctrine'
p72
I25
ssS'charisma'
p73
I1
sS'birthday'
p74
g12
(S'\x07\xb1\x0c\x01'
tRp75
sS'clout'
p76
I1
sS'credibility'
p77
I0
sS'department'
p78
g50
sS'day_job'
p79
I01
sS'sunk_cost'
p80
I15
sS'fanaticism'
p81
I10
sbasg31
ccult
indoctrinatingRecruits
p82
sg33
I01
sg34
g48
sbssS'recruit_base_morale_max'
p83
I80
sS'ex_members'
p84
(lp85
sS'membership'
p86
(lp87
g54
a(iperson
Person
p88
(dp89
g56
S''
sg7
S'Random Name9629894'
p90
sg59
S''
sg60
(lp91
sg62
(lp92
sg64
S'm'
sg65
I47
sg66
I1000
sg67
g41
sg68
I74
sg69
(dp93
g41
I15
ssg73
I0
sg74
S''
sg76
I1
sg77
I0
sg78
S''
sg79
I01
sg80
I3
sg81
I0
sbasg72
I10
sg35
g54
sS'weirdness'
p94
I0
sS'fame'
p95
I0
sg66
I1000
sb.