(icult
Cult
p1
(dp2
S'doctrines'
p3
(lp4
(icult
Doctrine
p5
(dp6
S'name'
p7
S'New Age'
p8
sS'popularity_mod'
p9
I5
sbasS'recruit_base_morale_min'
p10
I40
sS'founding_date'
p11
cdatetime
date
p12
(S'\x07\xdf\x0c\x01'
tRp13
sS'current_date'
p14
g12
(S'\x07\xe0\x01\x02'
tRp15
sg7
S'333'
p16
sS'funds'
p17
I1000
sS'popularity'
p18
I0
sS'authoritarianism'
p19
I0
sS'departments'
p20
(dp21
S'Meditating'
p22
(ilaborpool
LaborPool
p23
(dp24
S'max_people'
p25
S'unlimited'
p26
sg7
S'Transcendental Medication'
p27
sS'people'
p28
(lp29
sS'monthly_function'
p30
I00
sS'permanency'
p31
I01
sS'minimum_rank'
p32
S'recruit'
p33
sbsS'Street Preaching'
p34
(ilaborpool
LaborPool
p35
(dp36
g25
g26
sg7
S'Recruiting: Street Preaching'
p37
sg28
(lp38
(iperson
Person
p39
(dp40
S'joined_date'
p41
g12
(S'\x07\xdf\x0c\x01'
tRp42
sg7
S'Rob'
p43
sS'family'
p44
S''
sS'dirt'
p45
(lp46
sS'successes'
p47
(lp48
sS'gender'
p49
S'm'
sS'age'
p50
I54
sS'wealth'
p51
I1000
sS'rank'
p52
S'leader'
p53
sS'morale'
p54
I0
sS'skills'
p55
(dp56
S'recruit_months'
p57
I1
sg33
I28
sS'doctrine'
p58
I25
ssS'charisma'
p59
I1
sS'birthday'
p60
g12
(S'\x07\xc7\x0c\x01'
tRp61
sS'clout'
p62
I1
sS'credibility'
p63
I0
sS'department'
p64
g35
sS'day_job'
p65
I01
sS'sunk_cost'
p66
I3
sS'fanaticism'
p67
I10
sbasg30
ccult
streetPreaching
p68
sg31
I01
sg32
S'outer'
p69
sbsS'Indoctrinating Recruits'
p70
(ilaborpool
LaborPool
p71
(dp72
g25
g26
sg7
S'Indoctrinating Recruits'
p73
sg28
(lp74
sg30
ccult
indoctrinatingRecruits
p75
sg31
I01
sg32
g69
sbssS'recruit_base_morale_max'
p76
I80
sS'ex_members'
p77
(lp78
sS'membership'
p79
(lp80
g39
asg58
I10
sg53
g39
sS'weirdness'
p81
I0
sS'fame'
p82
I0
sg51
I1000
sb.