(icult
Cult
p1
(dp2
S'doctrines'
p3
(lp4
(icult
Doctrine
p5
(dp6
S'name'
p7
S'Magjickk'
p8
sS'popularity_mod'
p9
I0
sbasS'recruit_base_morale_min'
p10
I40
sS'founding_date'
p11
cdatetime
date
p12
(S'\x07\xdf\x0c\x01'
tRp13
sS'current_date'
p14
g12
(S'\x07\xe0\x02\x03'
tRp15
sg7
S'Cult of F'
p16
sS'funds'
p17
I1000
sS'popularity'
p18
I0
sS'authoritarianism'
p19
I0
sS'departments'
p20
(dp21
S'Meditating'
p22
(ilaborpool
LaborPool
p23
(dp24
S'max_people'
p25
S'unlimited'
p26
sg7
S'Transcendental Medication'
p27
sS'people'
p28
(lp29
(iperson
Person
p30
(dp31
S'joined_date'
p32
S''
sg7
S'Random Name1701981'
p33
sS'family'
p34
S''
sS'dirt'
p35
(lp36
sS'successes'
p37
(lp38
sS'gender'
p39
S'm'
sS'age'
p40
I48
sS'wealth'
p41
I1000
sS'rank'
p42
S'recruit'
p43
sS'morale'
p44
I47
sS'skills'
p45
(dp46
g43
I15
ssS'charisma'
p47
I0
sS'birthday'
p48
S''
sS'clout'
p49
I1
sS'credibility'
p50
I0
sS'department'
p51
g23
sS'day_job'
p52
I01
sS'sunk_cost'
p53
I0
sS'fanaticism'
p54
I0
sba(iperson
Person
p55
(dp56
g32
S''
sg7
S'Random Name9538638'
p57
sg34
S''
sg35
(lp58
sg37
(lp59
sg39
S'm'
sg40
I28
sg41
I1000
sg42
g43
sg44
I62
sg45
(dp60
g43
I15
ssg47
I1
sg48
S''
sg49
I1
sg50
I0
sg51
g23
sg52
I01
sg53
I0
sg54
I0
sba(iperson
Person
p61
(dp62
g32
S''
sg7
S'Random Name5247400'
p63
sg34
S''
sg35
(lp64
sg37
(lp65
sg39
S'f'
sg40
I36
sg41
I1000
sg42
g43
sg44
I51
sg45
(dp66
g43
I15
ssg47
I0
sg48
S''
sg49
I1
sg50
I0
sg51
g23
sg52
I01
sg53
I0
sg54
I0
sba(iperson
Person
p67
(dp68
g32
S''
sg7
S'Random Name6677775'
p69
sg34
S''
sg35
(lp70
sg37
(lp71
sg39
S'f'
sg40
I19
sg41
I1000
sg42
g43
sg44
I68
sg45
(dp72
g43
I15
ssg47
I0
sg48
S''
sg49
I1
sg50
I0
sg51
g23
sg52
I01
sg53
I0
sg54
I0
sba(iperson
Person
p73
(dp74
g32
S''
sg7
S'Random Name824863'
p75
sg34
S''
sg35
(lp76
sg37
(lp77
sg39
S'f'
sg40
I17
sg41
I1000
sg42
g43
sg44
I74
sg45
(dp78
g43
I15
ssg47
I1
sg48
S''
sg49
I1
sg50
I0
sg51
g23
sg52
I01
sg53
I0
sg54
I0
sba(iperson
Person
p79
(dp80
g32
S''
sg7
S'Random Name6463231'
p81
sg34
S''
sg35
(lp82
sg37
(lp83
sg39
S'f'
sg40
I54
sg41
I1000
sg42
g43
sg44
I79
sg45
(dp84
g43
I15
ssg47
I0
sg48
S''
sg49
I1
sg50
I0
sg51
g23
sg52
I01
sg53
I0
sg54
I0
sba(iperson
Person
p85
(dp86
g32
S''
sg7
S'Random Name8973516'
p87
sg34
S''
sg35
(lp88
sg37
(lp89
sg39
S'f'
sg40
I17
sg41
I1000
sg42
g43
sg44
I76
sg45
(dp90
g43
I15
ssg47
I1
sg48
S''
sg49
I1
sg50
I0
sg51
g23
sg52
I01
sg53
I0
sg54
I0
sba(iperson
Person
p91
(dp92
g32
S''
sg7
S'Random Name3319891'
p93
sg34
S''
sg35
(lp94
sg37
(lp95
sg39
S'm'
sg40
I50
sg41
I1000
sg42
g43
sg44
I48
sg45
(dp96
g43
I15
ssg47
I0
sg48
S''
sg49
I1
sg50
I0
sg51
g23
sg52
I01
sg53
I0
sg54
I0
sbasS'monthly_function'
p97
I00
sS'permanency'
p98
I01
sS'minimum_rank'
p99
g43
sbsS'Street Preaching'
p100
(ilaborpool
LaborPool
p101
(dp102
g25
g26
sg7
S'Recruitment: Street Preaching'
p103
sg28
(lp104
(iperson
Person
p105
(dp106
g32
S''
sg7
S'Random Name9350022'
p107
sg34
S''
sg35
(lp108
sg37
(lp109
sg39
S'f'
sg40
I36
sg41
I1000
sg42
S'ex'
p110
sg44
I68
sg45
(dp111
S'recruit_months'
p112
I1
sg43
I18
ssg47
I0
sg48
S''
sg49
I1
sg50
I0
sg51
g101
sg52
I01
sg53
I2
sg54
I0
sba(iperson
Person
p113
(dp114
g32
S''
sg7
S'Random Name4478538'
p115
sg34
S''
sg35
(lp116
sg37
(lp117
sg39
S'f'
sg40
I30
sg41
I1000
sg42
g43
sg44
I50
sg45
(dp118
S'recruit_months'
p119
I1
sg43
I15
ssg47
I1
sg48
S''
sg49
I1
sg50
I0
sg51
g101
sg52
I01
sg53
I3
sg54
I0
sba(iperson
Person
p120
(dp121
g32
g12
(S'\x07\xdf\x0c\x01'
tRp122
sg7
S'Bjorn Fnord'
p123
sg34
S''
sg35
(lp124
sg37
(lp125
sg39
S'f'
sg40
I54
sg41
I1000
sg42
S'leader'
p126
sg44
I3
sg45
(dp127
S'recruit_months'
p128
I2
sg43
I25
ssg47
I0
sg48
g12
(S'\x07\xc7\x0b\x01'
tRp129
sg49
I1
sg50
I0
sg51
g101
sg52
I01
sg53
I8
sg54
I10
sbasg97
ccult
streetPreaching
p130
sg98
I01
sg99
g43
sbssS'recruit_base_morale_max'
p131
I80
sS'ex_members'
p132
(lp133
g105
asS'membership'
p134
(lp135
g120
ag113
ag30
ag55
ag61
ag67
ag73
ag79
ag85
ag91
asS'doctrine'
p136
I10
sg126
g120
sS'weirdness'
p137
I0
sS'fame'
p138
I0
sg41
I1000
sb.