(icult
Cult
p1
(dp2
S'doctrines'
p3
(lp4
(icult
Doctrine
p5
(dp6
S'name'
p7
S'UFO'
p8
sS'popularity_mod'
p9
I0
sbasS'recruit_base_morale_min'
p10
I40
sS'founding_date'
p11
cdatetime
date
p12
(S'\x07\xdf\x0c\x01'
tRp13
sS'leader'
p14
(iperson
Person
p15
(dp16
S'joined_date'
p17
g12
(S'\x07\xdf\x0c\x01'
tRp18
sg7
S'Robert Dobson'
p19
sS'family'
p20
S''
sS'dirt'
p21
(lp22
sS'successes'
p23
(lp24
sS'gender'
p25
S'f'
sS'age'
p26
I30
sS'income'
p27
I50
sS'influence'
p28
I0
sS'rank'
p29
S'leader'
p30
sS'morale'
p31
I0
sS'skills'
p32
(dp33
S'recruit_months'
p34
I3
sS'doctrine'
p35
I34
sS'recruit'
p36
I36
sS'teaching_months'
p37
I14
ssS'charisma'
p38
I0
sS'birthday'
p39
g12
(S'\x07\xb1\x0c\x01'
tRp40
sS'clout'
p41
I1
sS'credibility'
p42
I0
sS'department'
p43
(ilaborpool
LaborPool
p44
(dp45
S'max_people'
p46
S'unlimited'
p47
sg7
S'Indoctrinating Recruits'
p48
sS'people'
p49
(lp50
g15
a(iperson
Person
p51
(dp52
g17
S''
sg7
S'Random Name8175402'
p53
sg20
S''
sg21
(lp54
sg23
(lp55
sg25
S'm'
sg26
I25
sg27
I50
sg28
I19
sg29
S'outer'
p56
sg31
I63
sg32
(dp57
S'doctrine'
p58
I10
sg36
I15
sS'teaching_months'
p59
I7
ssg38
I0
sg39
S''
sg41
I1
sg42
I0
sg43
g44
sS'wealth'
p60
I1650
sS'day_job'
p61
I01
sS'sunk_cost'
p62
I33
sS'fanaticism'
p63
I0
sba(iperson
Person
p64
(dp65
g17
S''
sg7
S'Random Name5031862'
p66
sg20
S''
sg21
(lp67
sg23
(lp68
sg25
S'f'
sg26
I23
sg27
I50
sg28
I12
sg29
g56
sg31
I65
sg32
(dp69
g58
I7
sg36
I15
sg59
I7
ssg38
I2
sg39
S''
sg41
I1
sg42
I0
sg43
g44
sg60
I1600
sg61
I01
sg62
I36
sg63
I0
sbasS'monthly_function'
p70
ccult
indoctrinatingRecruits
p71
sS'permanency'
p72
I01
sS'minimum_rank'
p73
g56
sbsg60
I2050
sg61
I01
sg62
I64
sg63
I10
sbsg7
S'Church of the Genius'
p74
sS'dogma'
p75
I10
sS'funds'
p76
I1041
sS'popularity'
p77
I0
sg60
I1000
sS'membership'
p78
(lp79
g15
a(iperson
Person
p80
(dp81
g17
S''
sg7
S'Random Name3455021'
p82
sg20
S''
sg21
(lp83
sg23
(lp84
sg25
S'm'
sg26
I30
sg27
I50
sg28
I30
sg29
g56
sg31
I86
sg32
(dp85
g34
I15
sg36
I35
sg35
I13
ssg38
I0
sg39
S''
sg41
I1
sg42
I0
sg43
(ilaborpool
LaborPool
p86
(dp87
g46
g47
sg7
S'Recruiting: Street Preaching'
p88
sg49
(lp89
g80
a(iperson
Person
p90
(dp91
g17
S''
sg7
S'Random Name9255047'
p92
sg20
S''
sg21
(lp93
sg23
(lp94
sg25
S'm'
sg26
I62
sg27
I50
sg28
I3
sg29
S'ex'
p95
sg31
I76
sg32
(dp96
g34
I14
sg36
I37
ssg38
I0
sg39
S''
sg41
I1
sg42
I0
sg43
g86
sg60
I1300
sg61
I01
sg62
I44
sg63
I0
sba(iperson
Person
p97
(dp98
g17
S''
sg7
S'Random Name5644322'
p99
sg20
S''
sg21
(lp100
sg23
(lp101
sg25
S'f'
sg26
I36
sg27
I50
sg28
I5
sg29
S'ex'
p102
sg31
I62
sg32
(dp103
S'recruit_months'
p104
I3
sg36
I18
ssg38
I0
sg39
S''
sg41
I1
sg42
I0
sg43
g86
sg60
I1400
sg61
I01
sg62
I21
sg63
I0
sba(iperson
Person
p105
(dp106
g17
S''
sg7
S'Random Name2788128'
p107
sg20
S''
sg21
(lp108
sg23
(lp109
sg25
S'm'
sg26
I23
sg27
I50
sg28
I2
sg29
g102
sg31
I58
sg32
(dp110
g104
I3
sg36
I18
ssg38
I0
sg39
S''
sg41
I1
sg42
I0
sg43
g86
sg60
I1200
sg61
I01
sg62
I21
sg63
I0
sbasg70
ccult
streetPreaching
p111
sg72
I01
sg73
g56
sbsg60
I1881
sg61
I01
sg62
I58
sg63
I11
sba(iperson
Person
p112
(dp113
g17
S''
sg7
S'Random Name8467443'
p114
sg20
S''
sg21
(lp115
sg23
(lp116
sg25
S'm'
sg26
I56
sg27
I50
sg28
I13
sg29
g56
sg31
I75
sg32
(dp117
g36
I15
sg35
I21
ssg38
I2
sg39
S''
sg41
I1
sg42
I0
sg43
I00
sg60
I1700
sg61
I01
sg62
I35
sg63
I23
sba(iperson
Person
p118
(dp119
g17
S''
sg7
S'Random Name9111922'
p120
sg20
S''
sg21
(lp121
sg23
(lp122
sg25
S'f'
sg26
I62
sg27
I50
sg28
I8
sg29
S'outer'
p123
sg31
I51
sg32
(dp124
g36
I15
sg35
I9
ssg38
I1
sg39
S''
sg41
I1
sg42
I0
sg43
S''
sg60
I1650
sg61
I01
sg62
I34
sg63
I12
sbag51
ag64
a(iperson
Person
p125
(dp126
g17
S''
sg7
S'Random Name2541114'
p127
sg20
S''
sg21
(lp128
sg23
(lp129
sg25
S'm'
sg26
I55
sg27
I50
sg28
I3
sg29
g123
sg31
I77
sg32
(dp130
g36
I15
sg35
I8
ssg38
I1
sg39
S''
sg41
I1
sg42
I0
sg43
S''
sg60
I1250
sg61
I01
sg62
I18
sg63
I5
sba(iperson
Person
p131
(dp132
g17
S''
sg7
S'Random Name992174'
p133
sg20
S''
sg21
(lp134
sg23
(lp135
sg25
S'm'
sg26
I36
sg27
I50
sg28
I5
sg29
g123
sg31
I70
sg32
(dp136
g36
I15
sg58
I15
ssg38
I1
sg39
S''
sg41
I1
sg42
I0
sg43
S''
sg60
I1250
sg61
I01
sg62
I18
sg63
I4
sba(iperson
Person
p137
(dp138
g17
S''
sg7
S'Random Name9950856'
p139
sg20
S''
sg21
(lp140
sg23
(lp141
sg25
S'f'
sg26
I36
sg27
I50
sg28
I2
sg29
g123
sg31
I64
sg32
(dp142
g36
I15
sg58
I13
ssg38
I2
sg39
S''
sg41
I1
sg42
I0
sg43
S''
sg60
I1250
sg61
I01
sg62
I11
sg63
I6
sba(iperson
Person
p143
(dp144
g17
S''
sg7
S'Random Name2306500'
p145
sg20
S''
sg21
(lp146
sg23
(lp147
sg25
S'm'
sg26
I23
sg27
I50
sg28
I6
sg29
g123
sg31
I67
sg32
(dp148
g36
I15
ssg38
I0
sg39
S''
sg41
I1
sg42
I0
sg43
S''
sg60
I1200
sg61
I01
sg62
I8
sg63
I0
sba(iperson
Person
p149
(dp150
g17
S''
sg7
S'Random Name3183156'
p151
sg20
S''
sg21
(lp152
sg23
(lp153
sg25
S'f'
sg26
I45
sg27
I50
sg28
I4
sg29
g123
sg31
I45
sg32
(dp154
g36
I15
sg58
I6
ssg38
I0
sg39
S''
sg41
I1
sg42
I0
sg43
S''
sg60
I1150
sg61
I01
sg62
I10
sg63
I3
sba(iperson
Person
p155
(dp156
g17
S''
sg7
S'Random Name2466550'
p157
sg20
S''
sg21
(lp158
sg23
(lp159
sg25
S'm'
sg26
I29
sg27
I50
sg28
I3
sg29
g123
sg31
I77
sg32
(dp160
g36
I15
sg58
I23
ssg38
I0
sg39
S''
sg41
I1
sg42
I0
sg43
S''
sg60
I1128
sg61
I01
sg62
I18
sg63
I21
sba(iperson
Person
p161
(dp162
g17
S''
sg7
S'Random Name7354470'
p163
sg20
S''
sg21
(lp164
sg23
(lp165
sg25
S'f'
sg26
I53
sg27
I50
sg60
I1100
sg29
S'recruit'
p166
sg31
I80
sg32
(dp167
g166
I15
sg58
I17
ssg38
I2
sg39
S''
sg41
I1
sg42
I0
sg43
S''
sg28
I1
sg61
I01
sg62
I16
sg63
I22
sba(iperson
Person
p168
(dp169
g17
S''
sg7
S'Random Name5223670'
p170
sg20
S''
sg21
(lp171
sg23
(lp172
sg25
S'f'
sg26
I59
sg27
I50
sg60
I1050
sg29
g166
sg31
I76
sg32
(dp173
g166
I15
sg58
I9
ssg38
I1
sg39
S''
sg41
I1
sg42
I0
sg43
S''
sg28
I1
sg61
I01
sg62
I8
sg63
I8
sba(iperson
Person
p174
(dp175
g17
S''
sg7
S'Random Name2862117'
p176
sg20
S''
sg21
(lp177
sg23
(lp178
sg25
S'm'
sg26
I18
sg27
I50
sg60
I1050
sg29
g166
sg31
I44
sg32
(dp179
g166
I15
ssg38
I0
sg39
S''
sg41
I1
sg42
I0
sg43
S''
sg28
I0
sg61
I01
sg62
I4
sg63
I0
sba(iperson
Person
p180
(dp181
g17
S''
sg7
S'Random Name6940285'
p182
sg20
S''
sg21
(lp183
sg23
(lp184
sg25
S'm'
sg26
I68
sg27
I50
sg60
I1050
sg29
g166
sg31
I70
sg32
(dp185
g166
I15
ssg38
I0
sg39
S''
sg41
I1
sg42
I0
sg43
S''
sg28
I0
sg61
I01
sg62
I4
sg63
I0
sba(iperson
Person
p186
(dp187
g17
S''
sg7
S'Random Name1764828'
p188
sg20
S''
sg21
(lp189
sg23
(lp190
sg25
S'm'
sg26
I25
sg27
I50
sg60
I1050
sg29
g166
sg31
I61
sg32
(dp191
g166
I15
ssg38
I0
sg39
S''
sg41
I1
sg42
I0
sg43
S''
sg28
I1
sg61
I01
sg62
I2
sg63
I0
sba(iperson
Person
p192
(dp193
g17
S''
sg7
S'Random Name6390766'
p194
sg20
S''
sg21
(lp195
sg23
(lp196
sg25
S'f'
sg26
I40
sg27
I50
sg60
I1000
sg29
g166
sg31
I76
sg32
(dp197
g166
I15
ssg38
I1
sg39
S''
sg41
I1
sg42
I0
sg43
S''
sg28
I0
sg61
I01
sg62
I0
sg63
I0
sbasS'departments'
p198
(dp199
S'Indoctrinating Recruits'
p200
g44
sS'Meditating'
p201
(ilaborpool
LaborPool
p202
(dp203
g46
g47
sg7
S'Transcendental Medication'
p204
sg49
(lp205
sg70
I00
sg72
I01
sg73
g36
sbsS'Street Preaching'
p206
g86
sS'Write Scripture'
p207
(ilaborpool
LaborPool
p208
(dp209
g46
g47
sg7
S'Write Scripture'
p210
sg49
(lp211
sg70
ccult
writeScripture
p212
sg72
I01
sg73
g30
sbssS'recruit_base_morale_max'
p213
I80
sS'ex_members'
p214
(lp215
(iperson
Person
p216
(dp217
g17
S''
sg7
S'Random Name6460366'
p218
sg20
S''
sg21
(lp219
sg23
(lp220
sg25
S'm'
sg26
I25
sg27
I50
sg28
I0
sg29
g95
sg31
I50
sg32
(dp221
g36
I15
ssg38
I0
sg39
S''
sg41
I1
sg42
I0
sg43
I00
sg60
I1050
sg61
I01
sg62
I4
sg63
I0
sbag90
a(iperson
Person
p222
(dp223
g17
S''
sg7
S'Random Name6674365'
p224
sg20
S''
sg21
(lp225
sg23
(lp226
sg25
S'm'
sg26
I32
sg27
I50
sg28
I0
sg29
g95
sg31
I41
sg32
(dp227
g36
I15
ssg38
I0
sg39
S''
sg41
I1
sg42
I0
sg43
S''
sg60
I1000
sg61
I01
sg62
I0
sg63
I0
sba(iperson
Person
p228
(dp229
g17
S''
sg7
S'Random Name5307758'
p230
sg20
S''
sg21
(lp231
sg23
(lp232
sg25
S'f'
sg26
I26
sg27
I50
sg28
I0
sg29
g95
sg31
I53
sg32
(dp233
g36
I15
ssg38
I0
sg39
S''
sg41
I1
sg42
I0
sg43
S''
sg60
I1100
sg61
I01
sg62
I8
sg63
I0
sba(iperson
Person
p234
(dp235
g17
S''
sg7
S'Random Name5871283'
p236
sg20
S''
sg21
(lp237
sg23
(lp238
sg25
S'f'
sg26
I45
sg27
I50
sg28
I0
sg29
g95
sg31
I43
sg32
(dp239
g36
I15
ssg38
I0
sg39
S''
sg41
I1
sg42
I0
sg43
S''
sg60
I1100
sg61
I01
sg62
I6
sg63
I0
sba(iperson
Person
p240
(dp241
g17
S''
sg7
S'Random Name7450862'
p242
sg20
S''
sg21
(lp243
sg23
(lp244
sg25
S'm'
sg26
I38
sg27
I50
sg28
I0
sg29
g95
sg31
I48
sg32
(dp245
g36
I15
ssg38
I1
sg39
S''
sg41
I1
sg42
I0
sg43
S''
sg60
I1050
sg61
I01
sg62
I3
sg63
I0
sba(iperson
Person
p246
(dp247
g17
S''
sg7
S'Random Name5491945'
p248
sg20
S''
sg21
(lp249
sg23
(lp250
sg25
S'm'
sg26
I49
sg27
I50
sg28
I0
sg29
g95
sg31
I40
sg32
(dp251
g36
I15
ssg38
I0
sg39
S''
sg41
I1
sg42
I0
sg43
S''
sg60
I1000
sg61
I01
sg62
I0
sg63
I0
sbag97
ag105
a(iperson
Person
p252
(dp253
g17
S''
sg7
S'Random Name7202175'
p254
sg20
S''
sg21
(lp255
sg23
(lp256
sg25
S'm'
sg26
I50
sg27
I50
sg28
I0
sg29
g102
sg31
I44
sg32
(dp257
g36
I15
ssg38
I0
sg39
S''
sg41
I1
sg42
I0
sg43
S''
sg60
I1000
sg61
I01
sg62
I0
sg63
I0
sba(iperson
Person
p258
(dp259
g17
S''
sg7
S'Random Name7076666'
p260
sg20
S''
sg21
(lp261
sg23
(lp262
sg25
S'f'
sg26
I49
sg27
I50
sg28
I0
sg29
g102
sg31
I70
sg32
(dp263
g36
I15
ssg38
I1
sg39
S''
sg41
I1
sg42
I0
sg43
S''
sg60
I1000
sg61
I01
sg62
I0
sg63
I0
sba(iperson
Person
p264
(dp265
g17
S''
sg7
S'Random Name8125884'
p266
sg20
S''
sg21
(lp267
sg23
(lp268
sg25
S'm'
sg26
I48
sg27
I50
sg60
I1000
sg29
g102
sg31
I55
sg32
(dp269
g166
I15
ssg38
I0
sg39
S''
sg41
I1
sg42
I0
sg43
S''
sg28
I0
sg61
I01
sg62
I0
sg63
I0
sbasS'authoritarianism'
p270
I0
sg58
I10
sS'supplies'
p271
(dp272
sS'weirdness'
p273
I0
sS'fame'
p274
I0
sS'current_date'
p275
g12
(S'\x07\xe1\n\x03'
tRp276
sb.