(icult
Cult
p1
(dp2
S'doctrines'
p3
(lp4
(icult
Doctrine
p5
(dp6
S'name'
p7
S'UFO'
p8
sS'popularity_mod'
p9
I0
sbasS'recruit_base_morale_min'
p10
I40
sS'founding_date'
p11
cdatetime
date
p12
(S'\x07\xdf\x0c\x01'
tRp13
sS'current_date'
p14
g12
(S'\x07\xe1\x06\x1d'
tRp15
sS'leader'
p16
(iperson
Person
p17
(dp18
S'joined_date'
p19
g12
(S'\x07\xdf\x0c\x01'
tRp20
sg7
S'Robert Dobson'
p21
sS'family'
p22
S''
sS'dirt'
p23
(lp24
sS'successes'
p25
(lp26
sS'gender'
p27
S'f'
sS'age'
p28
I30
sS'income'
p29
I50
sS'wealth'
p30
I1900
sS'rank'
p31
g16
sS'morale'
p32
I0
sS'skills'
p33
(dp34
S'recruit_months'
p35
I3
sS'teaching_months'
p36
I12
sS'recruit'
p37
I36
sS'doctrine'
p38
I31
ssS'charisma'
p39
I0
sS'birthday'
p40
g12
(S'\x07\xb1\x0c\x01'
tRp41
sS'clout'
p42
I1
sS'credibility'
p43
I0
sS'department'
p44
(ilaborpool
LaborPool
p45
(dp46
S'max_people'
p47
S'unlimited'
p48
sg7
S'Indoctrinating Recruits'
p49
sS'people'
p50
(lp51
g17
asS'monthly_function'
p52
ccult
indoctrinatingRecruits
p53
sS'permanency'
p54
I01
sS'minimum_rank'
p55
S'outer'
p56
sbsS'influence'
p57
I0
sS'day_job'
p58
I01
sS'sunk_cost'
p59
I64
sS'fanaticism'
p60
I10
sbsg7
S'Church of the Genius'
p61
sS'dogma'
p62
I10
sS'funds'
p63
I1000
sS'popularity'
p64
I0
sS'authoritarianism'
p65
I0
sS'departments'
p66
(dp67
S'Write Scripture'
p68
(ilaborpool
LaborPool
p69
(dp70
g47
g48
sg7
S'Write Scripture'
p71
sg50
(lp72
sg52
ccult
writeScripture
p73
sg54
I01
sg55
g16
sbsS'Meditating'
p74
(ilaborpool
LaborPool
p75
(dp76
g47
g48
sg7
S'Transcendental Medication'
p77
sg50
(lp78
sg52
I00
sg54
I01
sg55
g37
sbsS'Street Preaching'
p79
(ilaborpool
LaborPool
p80
(dp81
g47
g48
sg7
S'Recruiting: Street Preaching'
p82
sg50
(lp83
(iperson
Person
p84
(dp85
g19
S''
sg7
S'Random Name3455021'
p86
sg22
S''
sg23
(lp87
sg25
(lp88
sg27
S'm'
sg28
I30
sg29
I50
sg30
I1750
sg31
g56
sg32
I91
sg33
(dp89
g35
I12
sg37
I31
sg38
I13
ssg39
I0
sg40
S''
sg42
I1
sg43
I0
sg44
g80
sg57
I23
sg58
I01
sg59
I47
sg60
I11
sba(iperson
Person
p90
(dp91
g19
S''
sg7
S'Random Name9255047'
p92
sg22
S''
sg23
(lp93
sg25
(lp94
sg27
S'm'
sg28
I62
sg29
I50
sg30
I1300
sg31
S'ex'
p95
sg32
I70
sg33
(dp96
g35
I11
sg37
I32
ssg39
I0
sg40
S''
sg42
I1
sg43
I0
sg44
g80
sg57
I3
sg58
I01
sg59
I43
sg60
I0
sbasg52
ccult
streetPreaching
p97
sg54
I01
sg55
g56
sbsS'Indoctrinating Recruits'
p98
g45
ssS'recruit_base_morale_max'
p99
I80
sS'ex_members'
p100
(lp101
(iperson
Person
p102
(dp103
g19
S''
sg7
S'Random Name6460366'
p104
sg22
S''
sg23
(lp105
sg25
(lp106
sg27
S'm'
sg28
I25
sg29
I50
sg30
I1050
sg31
g95
sg32
I50
sg33
(dp107
g37
I15
ssg39
I0
sg40
S''
sg42
I1
sg43
I0
sg44
I00
sg57
I0
sg58
I01
sg59
I4
sg60
I0
sbag90
a(iperson
Person
p108
(dp109
g19
S''
sg7
S'Random Name6674365'
p110
sg22
S''
sg23
(lp111
sg25
(lp112
sg27
S'm'
sg28
I32
sg29
I50
sg30
I1000
sg31
g95
sg32
I41
sg33
(dp113
g37
I15
ssg39
I0
sg40
S''
sg42
I1
sg43
I0
sg44
S''
sg57
I0
sg58
I01
sg59
I0
sg60
I0
sba(iperson
Person
p114
(dp115
g19
S''
sg7
S'Random Name5307758'
p116
sg22
S''
sg23
(lp117
sg25
(lp118
sg27
S'f'
sg28
I26
sg29
I50
sg30
I1100
sg31
g95
sg32
I53
sg33
(dp119
g37
I15
ssg39
I0
sg40
S''
sg42
I1
sg43
I0
sg44
S''
sg57
I0
sg58
I01
sg59
I8
sg60
I0
sba(iperson
Person
p120
(dp121
g19
S''
sg7
S'Random Name5871283'
p122
sg22
S''
sg23
(lp123
sg25
(lp124
sg27
S'f'
sg28
I45
sg29
I50
sg30
I1100
sg31
g95
sg32
I43
sg33
(dp125
g37
I15
ssg39
I0
sg40
S''
sg42
I1
sg43
I0
sg44
S''
sg57
I0
sg58
I01
sg59
I6
sg60
I0
sba(iperson
Person
p126
(dp127
g19
S''
sg7
S'Random Name7450862'
p128
sg22
S''
sg23
(lp129
sg25
(lp130
sg27
S'm'
sg28
I38
sg29
I50
sg30
I1050
sg31
g95
sg32
I48
sg33
(dp131
g37
I15
ssg39
I1
sg40
S''
sg42
I1
sg43
I0
sg44
S''
sg57
I0
sg58
I01
sg59
I3
sg60
I0
sba(iperson
Person
p132
(dp133
g19
S''
sg7
S'Random Name5491945'
p134
sg22
S''
sg23
(lp135
sg25
(lp136
sg27
S'm'
sg28
I49
sg29
I50
sg30
I1000
sg31
g95
sg32
I40
sg33
(dp137
g37
I15
ssg39
I0
sg40
S''
sg42
I1
sg43
I0
sg44
S''
sg57
I0
sg58
I01
sg59
I0
sg60
I0
sbasS'membership'
p138
(lp139
g17
ag84
a(iperson
Person
p140
(dp141
g19
S''
sg7
S'Random Name8467443'
p142
sg22
S''
sg23
(lp143
sg25
(lp144
sg27
S'm'
sg28
I56
sg29
I50
sg30
I1550
sg31
g56
sg32
I75
sg33
(dp145
g37
I15
sg38
I21
ssg39
I2
sg40
S''
sg42
I1
sg43
I0
sg44
I00
sg57
I11
sg58
I01
sg59
I30
sg60
I23
sba(iperson
Person
p146
(dp147
g19
S''
sg7
S'Random Name9111922'
p148
sg22
S''
sg23
(lp149
sg25
(lp150
sg27
S'f'
sg28
I62
sg29
I50
sg30
I1500
sg31
g37
sg32
I55
sg33
(dp151
g37
I15
sg38
I9
ssg39
I1
sg40
S''
sg42
I1
sg43
I0
sg44
S''
sg57
I6
sg58
I01
sg59
I30
sg60
I12
sba(iperson
Person
p152
(dp153
g19
S''
sg7
S'Random Name8175402'
p154
sg22
S''
sg23
(lp155
sg25
(lp156
sg27
S'm'
sg28
I25
sg29
I50
sg30
I1500
sg31
g56
sg32
I69
sg33
(dp157
g37
I15
ssg39
I0
sg40
S''
sg42
I1
sg43
I0
sg44
S''
sg57
I16
sg58
I01
sg59
I22
sg60
I0
sba(iperson
Person
p158
(dp159
g19
S''
sg7
S'Random Name5031862'
p160
sg22
S''
sg23
(lp161
sg25
(lp162
sg27
S'f'
sg28
I23
sg29
I50
sg30
I1450
sg31
g56
sg32
I74
sg33
(dp163
g37
I15
ssg39
I2
sg40
S''
sg42
I1
sg43
I0
sg44
S''
sg57
I8
sg58
I01
sg59
I20
sg60
I0
sba(iperson
Person
p164
(dp165
g19
S''
sg7
S'Random Name5644322'
p166
sg22
S''
sg23
(lp167
sg25
(lp168
sg27
S'f'
sg28
I36
sg29
I50
sg30
I1400
sg31
g56
sg32
I63
sg33
(dp169
g37
I15
ssg39
I0
sg40
S''
sg42
I1
sg43
I0
sg44
S''
sg57
I10
sg58
I01
sg59
I16
sg60
I0
sba(iperson
Person
p170
(dp171
g19
S''
sg7
S'Random Name2788128'
p172
sg22
S''
sg23
(lp173
sg25
(lp174
sg27
S'm'
sg28
I23
sg29
I50
sg30
I1200
sg31
g56
sg32
I72
sg33
(dp175
g37
I15
ssg39
I0
sg40
S''
sg42
I1
sg43
I0
sg44
S''
sg57
I5
sg58
I01
sg59
I10
sg60
I0
sba(iperson
Person
p176
(dp177
g19
S''
sg7
S'Random Name2541114'
p178
sg22
S''
sg23
(lp179
sg25
(lp180
sg27
S'm'
sg28
I55
sg29
I50
sg30
I1100
sg31
g37
sg32
I79
sg33
(dp181
g37
I15
sg38
I8
ssg39
I1
sg40
S''
sg42
I1
sg43
I0
sg44
S''
sg57
I0
sg58
I01
sg59
I7
sg60
I5
sba(iperson
Person
p182
(dp183
g19
S''
sg7
S'Random Name992174'
p184
sg22
S''
sg23
(lp185
sg25
(lp186
sg27
S'm'
sg28
I36
sg29
I50
sg30
I1100
sg31
g37
sg32
I78
sg33
(dp187
g37
I15
ssg39
I1
sg40
S''
sg42
I1
sg43
I0
sg44
S''
sg57
I1
sg58
I01
sg59
I5
sg60
I0
sba(iperson
Person
p188
(dp189
g19
S''
sg7
S'Random Name9950856'
p190
sg22
S''
sg23
(lp191
sg25
(lp192
sg27
S'f'
sg28
I36
sg29
I50
sg30
I1100
sg31
g37
sg32
I54
sg33
(dp193
g37
I15
ssg39
I2
sg40
S''
sg42
I1
sg43
I0
sg44
S''
sg57
I0
sg58
I01
sg59
I3
sg60
I0
sba(iperson
Person
p194
(dp195
g19
S''
sg7
S'Random Name2306500'
p196
sg22
S''
sg23
(lp197
sg25
(lp198
sg27
S'm'
sg28
I23
sg29
I50
sg30
I1050
sg31
g37
sg32
I67
sg33
(dp199
g37
I15
ssg39
I0
sg40
S''
sg42
I1
sg43
I0
sg44
S''
sg57
I1
sg58
I01
sg59
I1
sg60
I0
sba(iperson
Person
p200
(dp201
g19
S''
sg7
S'Random Name3183156'
p202
sg22
S''
sg23
(lp203
sg25
(lp204
sg27
S'f'
sg28
I45
sg29
I50
sg30
I1000
sg31
g37
sg32
I44
sg33
(dp205
g37
I15
ssg39
I0
sg40
S''
sg42
I1
sg43
I0
sg44
S''
sg57
I0
sg58
I01
sg59
I0
sg60
I0
sba(iperson
Person
p206
(dp207
g19
S''
sg7
S'Random Name7202175'
p208
sg22
S''
sg23
(lp209
sg25
(lp210
sg27
S'm'
sg28
I50
sg29
I50
sg30
I1000
sg31
g37
sg32
I44
sg33
(dp211
g37
I15
ssg39
I0
sg40
S''
sg42
I1
sg43
I0
sg44
S''
sg57
I0
sg58
I01
sg59
I0
sg60
I0
sba(iperson
Person
p212
(dp213
g19
S''
sg7
S'Random Name2466550'
p214
sg22
S''
sg23
(lp215
sg25
(lp216
sg27
S'm'
sg28
I29
sg29
I50
sg30
I1000
sg31
g37
sg32
I69
sg33
(dp217
g37
I15
ssg39
I0
sg40
S''
sg42
I1
sg43
I0
sg44
S''
sg57
I0
sg58
I01
sg59
I0
sg60
I0
sba(iperson
Person
p218
(dp219
g19
S''
sg7
S'Random Name7076666'
p220
sg22
S''
sg23
(lp221
sg25
(lp222
sg27
S'f'
sg28
I49
sg29
I50
sg30
I1000
sg31
g37
sg32
I70
sg33
(dp223
g37
I15
ssg39
I1
sg40
S''
sg42
I1
sg43
I0
sg44
S''
sg57
I0
sg58
I01
sg59
I0
sg60
I0
sbasg38
I10
sS'supplies'
p224
(dp225
sS'weirdness'
p226
I0
sS'fame'
p227
I0
sg30
I1000
sb.