(icult
Cult
p1
(dp2
S'funds'
p3
I1000
sS'popularity'
p4
I0
sS'recruit_base_morale'
p5
I75
sS'authoritarianism'
p6
I0
sS'departments'
p7
(dp8
sS'membership'
p9
(lp10
sS'doctrine'
p11
(lp12
sS'fame'
p13
I0
sb.