(icult
Cult
p1
(dp2
S'doctrines'
p3
(lp4
(icult
Doctrine
p5
(dp6
S'name'
p7
S'Pagan'
p8
sS'popularity_mod'
p9
I0
sbasS'recruit_base_morale_min'
p10
I40
sS'founding_date'
p11
cdatetime
date
p12
(S'\x07\xdf\x0c\x01'
tRp13
sS'current_date'
p14
g12
(S'\x07\xdf\x0c\x01'
tRp15
sg7
S'Octangulonism'
p16
sS'funds'
p17
I1000
sS'popularity'
p18
I0
sS'authoritarianism'
p19
I0
sS'departments'
p20
(dp21
S'Street Preaching'
p22
(ilaborpool
LaborPool
p23
(dp24
S'max_people'
p25
S'unlimited'
p26
sg7
S'Recruitment: Street Preaching'
p27
sS'people'
p28
(lp29
sS'monthly_function'
p30
ccult
streetPreaching
p31
sS'permanency'
p32
I01
sS'minimum_rank'
p33
S'recruit'
p34
sbssS'recruit_base_morale_max'
p35
I80
sS'ex_members'
p36
(lp37
sS'membership'
p38
(lp39
(iperson
Person
p40
(dp41
S'joined_date'
p42
g12
(S'\x07\xdf\x0c\x01'
tRp43
sg7
S'Rob'
p44
sS'family'
p45
S''
sS'dirt'
p46
(lp47
sS'successes'
p48
(lp49
sS'gender'
p50
S'f'
sS'age'
p51
I48
sS'wealth'
p52
I1000
sS'rank'
p53
S'leader'
p54
sS'morale'
p55
I0
sS'skills'
p56
(dp57
g34
I25
ssS'charisma'
p58
I0
sS'birthday'
p59
g12
(S'\x07\xb1\x0c\x01'
tRp60
sS'clout'
p61
I1
sS'credibility'
p62
I0
sS'department'
p63
S''
sS'day_job'
p64
I01
sS'sunk_cost'
p65
I0
sS'fanaticism'
p66
I40
sbasS'doctrine'
p67
I10
sg54
g40
sS'weirdness'
p68
I0
sS'fame'
p69
I0
sg52
I1000
sb.