(icult
Cult
p1
(dp2
S'doctrines'
p3
(lp4
(icult
Doctrine
p5
(dp6
S'name'
p7
S'Christian'
p8
sS'popularity_mod'
p9
I10
sbasS'recruit_base_morale_min'
p10
I40
sS'founding_date'
p11
cdatetime
date
p12
(S'\x07\xdf\x0c\x01'
tRp13
sS'current_date'
p14
g12
(S'\x07\xe0\x01\x02'
tRp15
sS'leader'
p16
(iperson
Person
p17
(dp18
S'joined_date'
p19
g12
(S'\x07\xdf\x0c\x01'
tRp20
sg7
S'Bob'
p21
sS'family'
p22
S''
sS'dirt'
p23
(lp24
sS'successes'
p25
(lp26
sS'gender'
p27
S'f'
sS'age'
p28
I36
sS'wealth'
p29
I1000
sS'rank'
p30
g16
sS'morale'
p31
I0
sS'skills'
p32
(dp33
S'recruit'
p34
I25
sS'doctrine'
p35
I25
ssS'charisma'
p36
I1
sS'birthday'
p37
g12
(S'\x07\xb1\x0c\x01'
tRp38
sS'clout'
p39
I1
sS'credibility'
p40
I0
sS'department'
p41
(ilaborpool
LaborPool
p42
(dp43
S'max_people'
p44
S'unlimited'
p45
sg7
S'Write Scripture'
p46
sS'people'
p47
(lp48
g17
asS'monthly_function'
p49
ccult
writeScripture
p50
sS'permanency'
p51
I01
sS'minimum_rank'
p52
g16
sbsS'influence'
p53
I0
sS'day_job'
p54
I01
sS'sunk_cost'
p55
I1
sS'fanaticism'
p56
I10
sbsg7
S'111'
p57
sS'dogma'
p58
I20
sS'funds'
p59
I500
sS'popularity'
p60
I0
sS'authoritarianism'
p61
I0
sS'departments'
p62
(dp63
S'Write Scripture'
p64
g42
sS'Meditating'
p65
(ilaborpool
LaborPool
p66
(dp67
g44
g45
sg7
S'Transcendental Medication'
p68
sg47
(lp69
sg49
I00
sg51
I01
sg52
g34
sbsS'Street Preaching'
p70
(ilaborpool
LaborPool
p71
(dp72
g44
g45
sg7
S'Recruiting: Street Preaching'
p73
sg47
(lp74
sg49
ccult
streetPreaching
p75
sg51
I01
sg52
S'outer'
p76
sbsS'Indoctrinating Recruits'
p77
(ilaborpool
LaborPool
p78
(dp79
g44
g45
sg7
S'Indoctrinating Recruits'
p80
sg47
(lp81
sg49
ccult
indoctrinatingRecruits
p82
sg51
I01
sg52
g76
sbssS'recruit_base_morale_max'
p83
I80
sS'ex_members'
p84
(lp85
sS'membership'
p86
(lp87
g17
asg35
I10
sS'supplies'
p88
(dp89
(imerch
Merch
p90
(dp91
S'prereq_function'
p92
cmerch
pamphletCheck
p93
sS'unit_cost'
p94
I25
sg7
S'Slick Pamphlets (100)'
p95
sS'internal_name'
p96
S'pamphlet_slick'
p97
sS'desc'
p98
S'Nicely printed color introductory pamphlets on glossy paper'
p99
sbI20
ssS'weirdness'
p100
I0
sS'fame'
p101
I0
sg29
I1000
sb.