(icult
Cult
p1
(dp2
S'doctrines'
p3
(lp4
(icult
Doctrine
p5
(dp6
S'name'
p7
S'Pagan'
p8
sS'popularity_mod'
p9
I0
sbasS'recruit_base_morale_min'
p10
I40
sS'founding_date'
p11
cdatetime
date
p12
(S'\x07\xe0\x01\x01'
tRp13
sS'current_date'
p14
g12
(S'\x07\xe0\x03\x05'
tRp15
sS'leader'
p16
(iperson
Person
p17
(dp18
S'joined_date'
p19
g12
(S'\x07\xe0\x01\x01'
tRp20
sS'family'
p21
S''
sS'influence'
p22
I0
sS'rank'
p23
g16
sS'morale'
p24
I2
sS'wealth'
p25
I1100
sS'credibility'
p26
I0
sS'charisma'
p27
I0
sS'income'
p28
I50
sS'department'
p29
(ilaborpool
LaborPool
p30
(dp31
S'max_people'
p32
S'unlimited'
p33
sg7
S'Indoctrinating Recruits'
p34
sS'cost_per_person'
p35
I5
sS'people'
p36
(lp37
g17
asS'monthly_function'
p38
ccult
indoctrinatingRecruits
p39
sS'permanency'
p40
I01
sS'minimum_rank'
p41
S'outer'
p42
sbsS'sunk_cost'
p43
I15
sS'fanaticism'
p44
I70
sS'dirt'
p45
(lp46
sS'money_spent'
p47
I0
sS'birthday'
p48
g12
(S'\x07\xb1\x0c\x01'
tRp49
sS'clout'
p50
I1
sS'day_job'
p51
I01
sg7
S'Rob'
p52
sS'successes'
p53
(lp54
sS'gender'
p55
S'm'
sS'age'
p56
I59
sS'skills'
p57
(dp58
S'recruit_months'
p59
I1
sS'teaching_months'
p60
I2
sS'recruit'
p61
I25
sS'doctrine'
p62
I27
ssbsg7
S'Pentabarf'
p63
sS'dogma'
p64
I10
sS'funds'
p65
I990
sS'popularity'
p66
I0
sS'authoritarianism'
p67
I0
sS'departments'
p68
(dp69
S'Write Scripture'
p70
(ilaborpool
LaborPool
p71
(dp72
g32
g33
sg7
S'Write Scripture'
p73
sg35
I0
sg36
(lp74
sg38
ccult
writeScripture
p75
sg40
I01
sg41
g16
sbsS'Meditating'
p76
(ilaborpool
LaborPool
p77
(dp78
g32
g33
sg7
S'Transcendental Medication'
p79
sg35
I0
sg36
(lp80
sg38
I00
sg40
I01
sg41
g61
sbsS'Street Preaching'
p81
(ilaborpool
LaborPool
p82
(dp83
g32
g33
sg7
S'Recruiting: Street Preaching'
p84
sg35
I5
sg36
(lp85
sg38
ccult
streetPreaching
p86
sg40
I01
sg41
g42
sbsS'Indoctrinating Recruits'
p87
g30
ssS'recruit_base_morale_max'
p88
I80
sS'ex_members'
p89
(lp90
(iperson
Person
p91
(dp92
g19
S''
sg21
S''
sg22
I0
sg23
S'ex'
p93
sg24
I50
sg25
I1000
sg26
I0
sg27
I1
sg28
I50
sg29
S''
sg43
I0
sg44
I0
sg45
(lp94
sg47
I0
sg48
S''
sg50
I1
sg51
I01
sg7
S'Random Name3918024'
p95
sg53
(lp96
sg55
S'm'
sg56
I35
sg57
(dp97
g61
I15
ssbasS'membership'
p98
(lp99
g17
a(iperson
Person
p100
(dp101
g19
S''
sg21
S''
sg22
I0
sg23
g61
sg24
I45
sg25
I1050
sg26
I0
sg27
I2
sg28
I50
sg29
S''
sg43
I4
sg44
I0
sg45
(lp102
sg47
I0
sg48
S''
sg50
I1
sg51
I01
sg7
S'Random Name7296617'
p103
sg53
(lp104
sg55
S'm'
sg56
I43
sg57
(dp105
g61
I15
ssba(iperson
Person
p106
(dp107
g19
S''
sg21
S''
sg22
I1
sg23
g61
sg24
I76
sg25
I1050
sg26
I0
sg27
I0
sg28
I50
sg29
S''
sg43
I8
sg44
I7
sg45
(lp108
sg47
I0
sg48
S''
sg50
I1
sg51
I01
sg7
S'Random Name4075154'
p109
sg53
(lp110
sg55
S'f'
sg56
I19
sg57
(dp111
g61
I15
sg62
I7
ssbasg62
I10
sS'supplies'
p112
(dp113
sS'weirdness'
p114
I0
sS'fame'
p115
I0
sg25
I1000
sb.