(icult
Cult
p1
(dp2
S'doctrines'
p3
(lp4
(icult
Doctrine
p5
(dp6
S'name'
p7
S'Pagan'
p8
sS'popularity_mod'
p9
I0
sbasS'recruit_base_morale_min'
p10
I40
sS'founding_date'
p11
cdatetime
date
p12
(S'\x07\xdf\x0c\x01'
tRp13
sS'current_date'
p14
g12
(S'\x07\xe0\x01\x02'
tRp15
sS'leader'
p16
(iperson
Person
p17
(dp18
S'joined_date'
p19
g12
(S'\x07\xdf\x0c\x01'
tRp20
sg7
S'Bob'
p21
sS'family'
p22
S''
sS'dirt'
p23
(lp24
sS'successes'
p25
(lp26
sS'gender'
p27
S'm'
sS'age'
p28
I22
sS'wealth'
p29
I1000
sS'rank'
p30
g16
sS'morale'
p31
I0
sS'skills'
p32
(dp33
S'recruit_months'
p34
I1
sS'recruit'
p35
I25
sS'doctrine'
p36
I25
ssS'charisma'
p37
I2
sS'birthday'
p38
g12
(S'\x07\xb1\x0c\x01'
tRp39
sS'clout'
p40
I1
sS'credibility'
p41
I0
sS'department'
p42
(ilaborpool
LaborPool
p43
(dp44
S'max_people'
p45
S'unlimited'
p46
sg7
S'Recruiting: Street Preaching'
p47
sS'people'
p48
(lp49
g17
asS'monthly_function'
p50
ccult
streetPreaching
p51
sS'permanency'
p52
I01
sS'minimum_rank'
p53
S'outer'
p54
sbsS'influence'
p55
I0
sS'day_job'
p56
I01
sS'sunk_cost'
p57
I7
sS'fanaticism'
p58
I70
sbsg7
S'Sifandia'
p59
sS'dogma'
p60
I10
sS'funds'
p61
I1000
sS'popularity'
p62
I0
sS'authoritarianism'
p63
I0
sS'departments'
p64
(dp65
S'Write Scripture'
p66
(ilaborpool
LaborPool
p67
(dp68
g45
g46
sg7
S'Write Scripture'
p69
sg48
(lp70
sg50
ccult
writeScripture
p71
sg52
I01
sg53
g16
sbsS'Meditating'
p72
(ilaborpool
LaborPool
p73
(dp74
g45
g46
sg7
S'Transcendental Medication'
p75
sg48
(lp76
sg50
I00
sg52
I01
sg53
g35
sbsS'Street Preaching'
p77
g43
sS'Indoctrinating Recruits'
p78
(ilaborpool
LaborPool
p79
(dp80
g45
g46
sg7
S'Indoctrinating Recruits'
p81
sg48
(lp82
sg50
ccult
indoctrinatingRecruits
p83
sg52
I01
sg53
g54
sbssS'recruit_base_morale_max'
p84
I80
sS'ex_members'
p85
(lp86
sS'membership'
p87
(lp88
g17
asg36
I10
sS'supplies'
p89
(dp90
sS'weirdness'
p91
I0
sS'fame'
p92
I0
sg29
I1000
sb.